target datalayout = "e-m:e-p270:32:32-p271:32:32-p272:64:64-i64:64-i128:128-f80:128-n8:16:32:64-S128"
target triple = "x86_64-pc-linux-gnu"

%class.LogTagSet = type { ptr, i64, [5 x i32], [4 x i8], %class.LogOutputList, %class.LogDecorators, ptr }
%class.LogOutputList = type <{ [6 x ptr], i32, [4 x i8] }>
%class.LogDecorators = type { i32 }
%class.FileMapInfo = type { i8, i8, i8, i32, i64, ptr, ptr, ptr }

@AutoCreateSharedArchive = external global i8, align 1
@.str.170 = private unnamed_addr constant [65 x i8] c"CDS is disabled because early JVMTI ClassFileLoadHook is in use.\00", align 1
@.str.171 = private unnamed_addr constant [34 x i8] c"Initialize static archive failed.\00", align 1
@.str.172 = private unnamed_addr constant [35 x i8] c"Initialize dynamic archive failed.\00", align 1
@ArchiveClassesAtExit = external global ptr, align 8
@_ZN16LogTagSetMappingILN6LogTag4typeE14ELS1_0ELS1_0ELS1_0ELS1_0ELS1_0EE7_tagsetE = linkonce_odr hidden global %class.LogTagSet zeroinitializer, comdat, align 8
@_ZN9CDSConfig27_is_dumping_dynamic_archiveE = external global i8, align 1
@_ZN11JvmtiExport33_should_post_class_file_load_hookE = external global i8, align 1
@_ZN9CDSConfig21_dynamic_archive_pathE = external global ptr, align 8

; Function Attrs: mustprogress nounwind uwtable
define linkonce_odr hidden noundef zeroext i1 @_ZNK13LogOutputList8is_levelEN8LogLevel4typeE(ptr noundef nonnull align 8 dereferenceable(52) %0, i32 noundef %1) #1 comdat align 2 {
  %3 = alloca ptr, align 8
  %4 = alloca i32, align 4
  store ptr %0, ptr %3, align 8
  store i32 %1, ptr %4, align 4
  %5 = load ptr, ptr %3, align 8
  %6 = getelementptr inbounds %class.LogOutputList, ptr %5, i32 0, i32 0
  %7 = load i32, ptr %4, align 4
  %8 = zext i32 %7 to i64
  %9 = getelementptr inbounds [6 x ptr], ptr %6, i64 0, i64 %8
  %10 = load volatile ptr, ptr %9, align 8
  %11 = icmp ne ptr %10, null
  ret i1 %11
}

; Function Attrs: mustprogress nounwind uwtable
define linkonce_odr hidden noundef ptr @_ZNK11FileMapInfo6headerEv(ptr noundef nonnull align 8 dereferenceable(40) %0) #1 comdat align 2 {
  %2 = alloca ptr, align 8
  store ptr %0, ptr %2, align 8
  %3 = load ptr, ptr %2, align 8
  %4 = getelementptr inbounds %class.FileMapInfo, ptr %3, i32 0, i32 7
  %5 = load ptr, ptr %4, align 8
  ret ptr %5
}

; Function Attrs: mustprogress nounwind uwtable
define linkonce_odr hidden noundef zeroext i1 @_ZNK9LogTagSet8is_levelEN8LogLevel4typeE(ptr noundef nonnull align 8 dereferenceable(112) %0, i32 noundef %1) #1 comdat align 2 {
  %3 = alloca ptr, align 8
  %4 = alloca i32, align 4
  store ptr %0, ptr %3, align 8
  store i32 %1, ptr %4, align 4
  %5 = load ptr, ptr %3, align 8
  %6 = getelementptr inbounds %class.LogTagSet, ptr %5, i32 0, i32 4
  %7 = load i32, ptr %4, align 4
  %8 = call noundef zeroext i1 @_ZNK13LogOutputList8is_levelEN8LogLevel4typeE(ptr noundef nonnull align 8 dereferenceable(52) %6, i32 noundef %7)
  ret i1 %8
}

; Function Attrs: mustprogress nounwind uwtable
define linkonce_odr hidden noundef nonnull align 8 dereferenceable(112) ptr @_ZN16LogTagSetMappingILN6LogTag4typeE14ELS1_0ELS1_0ELS1_0ELS1_0ELS1_0EE6tagsetEv() #1 comdat align 2 {
  ret ptr @_ZN16LogTagSetMappingILN6LogTag4typeE14ELS1_0ELS1_0ELS1_0ELS1_0ELS1_0EE7_tagsetE
}

; Function Attrs: mustprogress nounwind uwtable
define linkonce_odr hidden noundef ptr @_ZN9CDSConfig20dynamic_archive_pathEv() #1 comdat align 2 {
  %1 = load ptr, ptr @_ZN9CDSConfig21_dynamic_archive_pathE, align 8
  ret ptr %1
}

; Function Attrs: mustprogress nounwind uwtable
define linkonce_odr hidden void @_ZN9CDSConfig30enable_dumping_dynamic_archiveEv() #1 comdat align 2 {
  store i8 1, ptr @_ZN9CDSConfig27_is_dumping_dynamic_archiveE, align 1
  ret void
}

; Function Attrs: mustprogress nounwind uwtable
define hidden noundef zeroext i1 @_ZN11FileMapInfo15validate_headerEv(ptr noundef nonnull align 8 dereferenceable(40) %0) #1 align 2 {
  %2 = alloca i1, align 1
  %3 = alloca ptr, align 8
  store ptr %0, ptr %3, align 8
  %4 = load ptr, ptr %3, align 8
  %5 = call noundef ptr @_ZNK11FileMapInfo6headerEv(ptr noundef nonnull align 8 dereferenceable(40) %4)
  %6 = call noundef zeroext i1 @_ZN13FileMapHeader8validateEv(ptr noundef nonnull align 8 dereferenceable(792) %5)
  br i1 %6, label %8, label %7

7:                                                ; preds = %1
  store i1 false, ptr %2, align 1
  br label %15

8:                                                ; preds = %1
  %9 = getelementptr inbounds %class.FileMapInfo, ptr %4, i32 0, i32 0
  %10 = load i8, ptr %9, align 8
  %11 = trunc i8 %10 to i1
  br i1 %11, label %12, label %13

12:                                               ; preds = %8
  store i1 true, ptr %2, align 1
  br label %15

13:                                               ; preds = %8
  %14 = call noundef zeroext i1 @_ZN14DynamicArchive8validateEP11FileMapInfo(ptr noundef %4)
  store i1 %14, ptr %2, align 1
  br label %15

15:                                               ; preds = %13, %12, %7
  %16 = load i1, ptr %2, align 1
  ret i1 %16
}

; Function Attrs: mustprogress nounwind uwtable
define linkonce_odr hidden noundef zeroext i1 @_ZN7LogImplILN6LogTag4typeE14ELS1_0ELS1_0ELS1_0ELS1_0ELS1_0EE8is_levelEN8LogLevel4typeE(i32 noundef %0) #1 comdat align 2 {
  %2 = alloca i32, align 4
  store i32 %0, ptr %2, align 4
  %3 = call noundef nonnull align 8 dereferenceable(112) ptr @_ZN16LogTagSetMappingILN6LogTag4typeE14ELS1_0ELS1_0ELS1_0ELS1_0ELS1_0EE6tagsetEv()
  %4 = load i32, ptr %2, align 4
  %5 = call noundef zeroext i1 @_ZNK9LogTagSet8is_levelEN8LogLevel4typeE(ptr noundef nonnull align 8 dereferenceable(112) %3, i32 noundef %4)
  ret i1 %5
}

; Function Attrs: mustprogress nounwind uwtable
define linkonce_odr hidden noundef zeroext i1 @_ZN11JvmtiExport32should_post_class_file_load_hookEv() #1 comdat align 2 {
  %1 = load i8, ptr @_ZN11JvmtiExport33_should_post_class_file_load_hookE, align 1
  %2 = trunc i8 %1 to i1
  ret i1 %2
}

; Function Attrs: mustprogress nounwind uwtable
define hidden noundef zeroext i1 @_ZN11FileMapInfo10initializeEv(ptr noundef nonnull align 8 dereferenceable(40) %0) #1 align 2 {
  %2 = alloca i1, align 1
  %3 = alloca ptr, align 8
  store ptr %0, ptr %3, align 8
  %4 = load ptr, ptr %3, align 8
  %5 = call noundef zeroext i1 @_ZN11JvmtiExport32should_post_class_file_load_hookEv()
  br i1 %5, label %6, label %13

6:                                                ; preds = %1
  %7 = call noundef zeroext i1 @_ZN11JvmtiExport24has_early_class_hook_envEv()
  br i1 %7, label %8, label %13

8:                                                ; preds = %6
  %9 = call noundef zeroext i1 @_ZN7LogImplILN6LogTag4typeE14ELS1_0ELS1_0ELS1_0ELS1_0ELS1_0EE8is_levelEN8LogLevel4typeE(i32 noundef 3)
  br i1 %9, label %11, label %10

10:                                               ; preds = %8
  br label %12

11:                                               ; preds = %8
  call void (ptr, ...) @_ZN7LogImplILN6LogTag4typeE14ELS1_0ELS1_0ELS1_0ELS1_0ELS1_0EE5writeILN8LogLevel4typeE3EEEvPKcz(ptr noundef @.str.170)
  br label %12

12:                                               ; preds = %11, %10
  store i1 false, ptr %2, align 1
  br label %41

13:                                               ; preds = %6, %1
  %14 = call noundef zeroext i1 @_ZN11FileMapInfo13open_for_readEv(ptr noundef nonnull align 8 dereferenceable(40) %4)
  br i1 %14, label %15, label %21

15:                                               ; preds = %13
  %16 = getelementptr inbounds %class.FileMapInfo, ptr %4, i32 0, i32 3
  %17 = load i32, ptr %16, align 4
  %18 = call noundef zeroext i1 @_ZN11FileMapInfo14init_from_fileEi(ptr noundef nonnull align 8 dereferenceable(40) %4, i32 noundef %17)
  br i1 %18, label %19, label %21

19:                                               ; preds = %15
  %20 = call noundef zeroext i1 @_ZN11FileMapInfo15validate_headerEv(ptr noundef nonnull align 8 dereferenceable(40) %4)
  br i1 %20, label %40, label %21

21:                                               ; preds = %19, %15, %13
  %22 = getelementptr inbounds %class.FileMapInfo, ptr %4, i32 0, i32 0
  %23 = load i8, ptr %22, align 8
  %24 = trunc i8 %23 to i1
  br i1 %24, label %25, label %30

25:                                               ; preds = %21
  %26 = call noundef zeroext i1 @_ZN7LogImplILN6LogTag4typeE14ELS1_0ELS1_0ELS1_0ELS1_0ELS1_0EE8is_levelEN8LogLevel4typeE(i32 noundef 3)
  br i1 %26, label %28, label %27

27:                                               ; preds = %25
  br label %29

28:                                               ; preds = %25
  call void (ptr, ...) @_ZN7LogImplILN6LogTag4typeE14ELS1_0ELS1_0ELS1_0ELS1_0ELS1_0EE5writeILN8LogLevel4typeE3EEEvPKcz(ptr noundef @.str.171)
  br label %29

29:                                               ; preds = %28, %27
  store i1 false, ptr %2, align 1
  br label %41

30:                                               ; preds = %21
  %31 = call noundef zeroext i1 @_ZN7LogImplILN6LogTag4typeE14ELS1_0ELS1_0ELS1_0ELS1_0ELS1_0EE8is_levelEN8LogLevel4typeE(i32 noundef 3)
  br i1 %31, label %33, label %32

32:                                               ; preds = %30
  br label %34

33:                                               ; preds = %30
  call void (ptr, ...) @_ZN7LogImplILN6LogTag4typeE14ELS1_0ELS1_0ELS1_0ELS1_0ELS1_0EE5writeILN8LogLevel4typeE3EEEvPKcz(ptr noundef @.str.172)
  br label %34

34:                                               ; preds = %33, %32
  %35 = load i8, ptr @AutoCreateSharedArchive, align 1
  %36 = trunc i8 %35 to i1
  br i1 %36, label %37, label %39

37:                                               ; preds = %34
  call void @_ZN9CDSConfig30enable_dumping_dynamic_archiveEv()
  %38 = call noundef ptr @_ZN9CDSConfig20dynamic_archive_pathEv()
  store ptr %38, ptr @ArchiveClassesAtExit, align 8
  br label %39

39:                                               ; preds = %37, %34
  store i1 false, ptr %2, align 1
  br label %41

40:                                               ; preds = %19
  store i1 true, ptr %2, align 1
  br label %41

41:                                               ; preds = %40, %39, %29, %12
  %42 = load i1, ptr %2, align 1
  ret i1 %42
}