; Function Attrs: mustprogress nounwind uwtable
define hidden noundef zeroext i1 @_ZN11FileMapInfo10initializeEv(ptr noundef nonnull align 8 dereferenceable(40) %0) local_unnamed_addr #0 align 2 {
  %2 = load i8, ptr @_ZN11JvmtiExport33_should_post_class_file_load_hookE, align 1
  %3 = trunc i8 %2 to i1
  br i1 %3, label %4, label %9

4:                                                ; preds = %1
  %5 = tail call noundef zeroext i1 @_ZN11JvmtiExport24has_early_class_hook_envEv() #25
  br i1 %5, label %6, label %9

6:                                                ; preds = %4
  %7 = load volatile ptr, ptr getelementptr inbounds (i8, ptr @_ZN16LogTagSetMappingILN6LogTag4typeE14ELS1_0ELS1_0ELS1_0ELS1_0ELS1_0EE7_tagsetE, i64 64), align 8
  %.not6 = icmp eq ptr %7, null
  br i1 %.not6, label %_ZN11FileMapInfo15validate_headerEv.exit.thread, label %8

8:                                                ; preds = %6
  tail call void (ptr, ...) @_ZN7LogImplILN6LogTag4typeE14ELS1_0ELS1_0ELS1_0ELS1_0ELS1_0EE5writeILN8LogLevel4typeE3EEEvPKcz(ptr noundef nonnull @.str.170)
  br label %_ZN11FileMapInfo15validate_headerEv.exit.thread

9:                                                ; preds = %4, %1
  %10 = tail call noundef zeroext i1 @_ZN11FileMapInfo13open_for_readEv(ptr noundef nonnull align 8 dereferenceable(40) %0)
  br i1 %10, label %11, label %_ZN11FileMapInfo15validate_headerEv.exit.thread3

11:                                               ; preds = %9
  %12 = getelementptr inbounds i8, ptr %0, i64 4
  %13 = load i32, ptr %12, align 4
  %14 = tail call noundef zeroext i1 @_ZN11FileMapInfo14init_from_fileEi(ptr noundef nonnull align 8 dereferenceable(40) %0, i32 noundef %13)
  br i1 %14, label %15, label %_ZN11FileMapInfo15validate_headerEv.exit.thread3

15:                                               ; preds = %11
  %16 = getelementptr inbounds i8, ptr %0, i64 32
  %17 = load ptr, ptr %16, align 8
  %18 = tail call noundef zeroext i1 @_ZN13FileMapHeader8validateEv(ptr noundef nonnull align 8 dereferenceable(792) %17)
  br i1 %18, label %19, label %_ZN11FileMapInfo15validate_headerEv.exit.thread3

19:                                               ; preds = %15
  %20 = load i8, ptr %0, align 8
  %21 = trunc i8 %20 to i1
  br i1 %21, label %_ZN11FileMapInfo15validate_headerEv.exit.thread, label %_ZN11FileMapInfo15validate_headerEv.exit

_ZN11FileMapInfo15validate_headerEv.exit:         ; preds = %19
  %22 = tail call noundef zeroext i1 @_ZN14DynamicArchive8validateEP11FileMapInfo(ptr noundef nonnull %0) #25
  br i1 %22, label %_ZN11FileMapInfo15validate_headerEv.exit.thread, label %_ZN11FileMapInfo15validate_headerEv.exit.thread3

_ZN11FileMapInfo15validate_headerEv.exit.thread3: ; preds = %15, %_ZN11FileMapInfo15validate_headerEv.exit, %11, %9
  %23 = load i8, ptr %0, align 8
  %24 = trunc i8 %23 to i1
  %25 = load volatile ptr, ptr getelementptr inbounds (i8, ptr @_ZN16LogTagSetMappingILN6LogTag4typeE14ELS1_0ELS1_0ELS1_0ELS1_0ELS1_0EE7_tagsetE, i64 64), align 8
  %.not5 = icmp eq ptr %25, null
  br i1 %24, label %26, label %28

26:                                               ; preds = %_ZN11FileMapInfo15validate_headerEv.exit.thread3
  br i1 %.not5, label %_ZN11FileMapInfo15validate_headerEv.exit.thread, label %27

27:                                               ; preds = %26
  tail call void (ptr, ...) @_ZN7LogImplILN6LogTag4typeE14ELS1_0ELS1_0ELS1_0ELS1_0ELS1_0EE5writeILN8LogLevel4typeE3EEEvPKcz(ptr noundef nonnull @.str.171)
  br label %_ZN11FileMapInfo15validate_headerEv.exit.thread

28:                                               ; preds = %_ZN11FileMapInfo15validate_headerEv.exit.thread3
  br i1 %.not5, label %30, label %29

29:                                               ; preds = %28
  tail call void (ptr, ...) @_ZN7LogImplILN6LogTag4typeE14ELS1_0ELS1_0ELS1_0ELS1_0ELS1_0EE5writeILN8LogLevel4typeE3EEEvPKcz(ptr noundef nonnull @.str.172)
  br label %30

30:                                               ; preds = %28, %29
  %31 = load i8, ptr @AutoCreateSharedArchive, align 1
  %32 = trunc i8 %31 to i1
  br i1 %32, label %33, label %_ZN11FileMapInfo15validate_headerEv.exit.thread

33:                                               ; preds = %30
  store i8 1, ptr @_ZN9CDSConfig27_is_dumping_dynamic_archiveE, align 1
  %34 = load ptr, ptr @_ZN9CDSConfig21_dynamic_archive_pathE, align 8
  store ptr %34, ptr @ArchiveClassesAtExit, align 8
  br label %_ZN11FileMapInfo15validate_headerEv.exit.thread

_ZN11FileMapInfo15validate_headerEv.exit.thread:  ; preds = %19, %_ZN11FileMapInfo15validate_headerEv.exit, %30, %33, %27, %26, %8, %6
  %.0 = phi i1 [ false, %6 ], [ false, %8 ], [ false, %26 ], [ false, %27 ], [ false, %33 ], [ false, %30 ], [ true, %_ZN11FileMapInfo15validate_headerEv.exit ], [ true, %19 ]
  ret i1 %.0
}